; Function Attrs: mustprogress nounwind willreturn memory(argmem: readwrite, inaccessiblemem: readwrite) uwtable
define void @Pdr_SetDeref(ptr noundef %0) local_unnamed_addr #7 {
  %2 = getelementptr inbounds nuw i8, ptr %0, i64 8
  %3 = load i32, ptr %2, align 8
  %4 = add nsw i32 %3, -1
  store i32 %4, ptr %2, align 8
  %5 = icmp eq i32 %4, 0
  %6 = icmp ne ptr %0, null
  %or.cond = and i1 %6, %5
  br i1 %or.cond, label %7, label %8

7:                                                ; preds = %1
  tail call void @free(ptr noundef nonnull %0) #27
  br label %8

8:                                                ; preds = %7, %1
  ret void
}